; Function Attrs: nofree norecurse nosync nounwind memory(write, argmem: readwrite, inaccessiblemem: none) uwtable
define noundef i32 @cli_realhex2ui(ptr nocapture noundef readonly %0, ptr nocapture noundef writeonly %1, i32 noundef %2) local_unnamed_addr #0 {
  %.not = icmp eq i32 %2, 0
  br i1 %.not, label %._crit_edge, label %.lr.ph

.lr.ph:                                           ; preds = %3, %48
  %.041 = phi i32 [ %50, %48 ], [ 0, %3 ]
  %.03440 = phi ptr [ %49, %48 ], [ %1, %3 ]
  %4 = zext i32 %.041 to i64
  %5 = getelementptr inbounds i8, ptr %0, i64 %4
  %6 = load i8, ptr %5, align 1
  %7 = icmp eq i8 %6, 63
  %8 = or disjoint i32 %.041, 1
  %9 = zext i32 %8 to i64
  br i1 %7, label %10, label %.lr.ph._crit_edge

10:                                               ; preds = %.lr.ph
  %11 = getelementptr inbounds i8, ptr %0, i64 %9
  %12 = load i8, ptr %11, align 1
  %13 = icmp eq i8 %12, 63
  br i1 %13, label %48, label %.lr.ph._crit_edge

.lr.ph._crit_edge:                                ; preds = %.lr.ph, %10
  %14 = getelementptr inbounds i8, ptr %0, i64 %9
  %15 = load i8, ptr %14, align 1
  %16 = icmp eq i8 %15, 63
  br i1 %16, label %17, label %25

17:                                               ; preds = %.lr.ph._crit_edge
  %18 = zext i8 %6 to i64
  %19 = getelementptr inbounds [256 x i32], ptr @hex_chars, i64 0, i64 %18
  %20 = load i32, ptr %19, align 4
  %21 = icmp sgt i32 %20, -1
  br i1 %21, label %22, label %._crit_edge

22:                                               ; preds = %17
  %.tr = trunc i32 %20 to i16
  %23 = shl i16 %.tr, 4
  %24 = or i16 %23, 768
  br label %48

25:                                               ; preds = %.lr.ph._crit_edge
  switch i8 %6, label %34 [
    i8 63, label %26
    i8 40, label %48
  ]

26:                                               ; preds = %25
  %27 = zext i8 %15 to i64
  %28 = getelementptr inbounds [256 x i32], ptr @hex_chars, i64 0, i64 %27
  %29 = load i32, ptr %28, align 4
  %30 = icmp sgt i32 %29, -1
  br i1 %30, label %31, label %._crit_edge

31:                                               ; preds = %26
  %32 = trunc i32 %29 to i16
  %33 = or i16 %32, 1024
  br label %48

34:                                               ; preds = %25
  %35 = zext i8 %6 to i64
  %36 = getelementptr inbounds [256 x i32], ptr @hex_chars, i64 0, i64 %35
  %37 = load i32, ptr %36, align 4
  %38 = icmp sgt i32 %37, -1
  br i1 %38, label %39, label %._crit_edge

39:                                               ; preds = %34
  %40 = zext i8 %15 to i64
  %41 = getelementptr inbounds [256 x i32], ptr @hex_chars, i64 0, i64 %40
  %42 = load i32, ptr %41, align 4
  %43 = icmp sgt i32 %42, -1
  br i1 %43, label %44, label %._crit_edge

44:                                               ; preds = %39
  %45 = shl i32 %37, 4
  %46 = add i32 %42, %45
  %47 = trunc i32 %46 to i16
  br label %48

48:                                               ; preds = %25, %10, %22, %44, %31
  %.032 = phi i16 [ %24, %22 ], [ %33, %31 ], [ %47, %44 ], [ 256, %10 ], [ 512, %25 ]
  %49 = getelementptr inbounds i8, ptr %.03440, i64 2
  store i16 %.032, ptr %.03440, align 2
  %50 = add i32 %.041, 2
  %51 = icmp ult i32 %50, %2
  br i1 %51, label %.lr.ph, label %._crit_edge

._crit_edge:                                      ; preds = %17, %26, %39, %34, %48, %3
  %.033 = phi i32 [ 1, %3 ], [ 1, %48 ], [ 0, %34 ], [ 0, %39 ], [ 0, %26 ], [ 0, %17 ]
  ret i32 %.033
}